target datalayout = "e-m:e-p270:32:32-p271:32:32-p272:64:64-i64:64-i128:128-f80:128-n8:16:32:64-S128"
target triple = "x86_64-unknown-linux-gnu"

%"class.re2::RE2::Options" = type <{ i64, i32, i8, i8, i8, i8, i8, i8, i8, i8, i8, i8, i8, i8 }>
%"class.re2::RE2" = type <{ ptr, %"class.re2::RE2::Options", ptr, ptr, ptr, ptr, i32, i32, %"class.std::__cxx11::basic_string", ptr, ptr, ptr, ptr, %"class.absl::debian2::once_flag", %"class.absl::debian2::once_flag", %"class.absl::debian2::once_flag", [4 x i8] }>
%"class.std::__cxx11::basic_string" = type { %"struct.std::__cxx11::basic_string<char>::_Alloc_hider", i64, %union.anon }
%"struct.std::__cxx11::basic_string<char>::_Alloc_hider" = type { ptr }
%union.anon = type { i64, [8 x i8] }
%"class.absl::debian2::once_flag" = type { %"struct.std::atomic" }
%"struct.std::atomic" = type { %"struct.std::__atomic_base" }
%"struct.std::__atomic_base" = type { i32 }

@.str.8 = private unnamed_addr constant [1 x i8] zeroinitializer, align 1

; Function Attrs: mustprogress uwtable
define noundef zeroext i1 @_ZNK3re23RE218PossibleMatchRangeEPNSt7__cxx1112basic_stringIcSt11char_traitsIcESaIcEEES7_i(ptr noundef nonnull align 8 dereferenceable(148) %this, ptr noundef %min, ptr noundef %max, i32 noundef %maxlen) #1 align 2 personality ptr @__gxx_personality_v0 {
entry:
  %retval = alloca i1, align 1
  %this.addr = alloca ptr, align 8
  %min.addr = alloca ptr, align 8
  %max.addr = alloca ptr, align 8
  %maxlen.addr = alloca i32, align 4
  %n = alloca i32, align 4
  %ref.tmp = alloca %"class.std::__cxx11::basic_string", align 8
  %ref.tmp8 = alloca %"class.std::__cxx11::basic_string", align 8
  %i = alloca i32, align 4
  %c = alloca ptr, align 8
  %dmin = alloca %"class.std::__cxx11::basic_string", align 8
  %dmax = alloca %"class.std::__cxx11::basic_string", align 8
  %exn.slot = alloca ptr, align 8
  %ehselector.slot = alloca i32, align 4
  %cleanup.dest.slot = alloca i32, align 4
  store ptr %this, ptr %this.addr, align 8
  store ptr %min, ptr %min.addr, align 8
  store ptr %max, ptr %max.addr, align 8
  store i32 %maxlen, ptr %maxlen.addr, align 4
  %this1 = load ptr, ptr %this.addr, align 8
  %prog_ = getelementptr inbounds %"class.re2::RE2", ptr %this1, i32 0, i32 9
  %0 = load ptr, ptr %prog_, align 8
  %cmp = icmp eq ptr %0, null
  br i1 %cmp, label %if.then, label %if.end

if.then:                                          ; preds = %entry
  store i1 false, ptr %retval, align 1
  br label %return

if.end:                                           ; preds = %entry
  %prefix_ = getelementptr inbounds %"class.re2::RE2", ptr %this1, i32 0, i32 8
  %call = call noundef i64 @_ZNKSt7__cxx1112basic_stringIcSt11char_traitsIcESaIcEE4sizeEv(ptr noundef nonnull align 8 dereferenceable(32) %prefix_) #16
  %conv = trunc i64 %call to i32
  store i32 %conv, ptr %n, align 4
  %1 = load i32, ptr %n, align 4
  %2 = load i32, ptr %maxlen.addr, align 4
  %cmp2 = icmp sgt i32 %1, %2
  br i1 %cmp2, label %if.then3, label %if.end4

if.then3:                                         ; preds = %if.end
  %3 = load i32, ptr %maxlen.addr, align 4
  store i32 %3, ptr %n, align 4
  br label %if.end4

if.end4:                                          ; preds = %if.then3, %if.end
  %prefix_5 = getelementptr inbounds %"class.re2::RE2", ptr %this1, i32 0, i32 8
  %4 = load i32, ptr %n, align 4
  %conv6 = sext i32 %4 to i64
  call void @_ZNKSt7__cxx1112basic_stringIcSt11char_traitsIcESaIcEE6substrEmm(ptr sret(%"class.std::__cxx11::basic_string") align 8 %ref.tmp, ptr noundef nonnull align 8 dereferenceable(32) %prefix_5, i64 noundef 0, i64 noundef %conv6)
  %5 = load ptr, ptr %min.addr, align 8
  %call7 = call noundef nonnull align 8 dereferenceable(32) ptr @_ZNSt7__cxx1112basic_stringIcSt11char_traitsIcESaIcEEaSEOS4_(ptr noundef nonnull align 8 dereferenceable(32) %5, ptr noundef nonnull align 8 dereferenceable(32) %ref.tmp) #16
  call void @_ZNSt7__cxx1112basic_stringIcSt11char_traitsIcESaIcEED1Ev(ptr noundef nonnull align 8 dereferenceable(32) %ref.tmp) #16
  %prefix_9 = getelementptr inbounds %"class.re2::RE2", ptr %this1, i32 0, i32 8
  %6 = load i32, ptr %n, align 4
  %conv10 = sext i32 %6 to i64
  call void @_ZNKSt7__cxx1112basic_stringIcSt11char_traitsIcESaIcEE6substrEmm(ptr sret(%"class.std::__cxx11::basic_string") align 8 %ref.tmp8, ptr noundef nonnull align 8 dereferenceable(32) %prefix_9, i64 noundef 0, i64 noundef %conv10)
  %7 = load ptr, ptr %max.addr, align 8
  %call11 = call noundef nonnull align 8 dereferenceable(32) ptr @_ZNSt7__cxx1112basic_stringIcSt11char_traitsIcESaIcEEaSEOS4_(ptr noundef nonnull align 8 dereferenceable(32) %7, ptr noundef nonnull align 8 dereferenceable(32) %ref.tmp8) #16
  call void @_ZNSt7__cxx1112basic_stringIcSt11char_traitsIcESaIcEED1Ev(ptr noundef nonnull align 8 dereferenceable(32) %ref.tmp8) #16
  %prefix_foldcase_ = getelementptr inbounds %"class.re2::RE2", ptr %this1, i32 0, i32 7
  %bf.load = load i32, ptr %prefix_foldcase_, align 4
  %bf.lshr = lshr i32 %bf.load, 31
  %bf.cast = trunc i32 %bf.lshr to i1
  br i1 %bf.cast, label %if.then12, label %if.end24

if.then12:                                        ; preds = %if.end4
  store i32 0, ptr %i, align 4
  br label %for.cond

for.cond:                                         ; preds = %for.inc, %if.then12
  %8 = load i32, ptr %i, align 4
  %9 = load i32, ptr %n, align 4
  %cmp13 = icmp slt i32 %8, %9
  br i1 %cmp13, label %for.body, label %for.end

for.body:                                         ; preds = %for.cond
  %10 = load ptr, ptr %min.addr, align 8
  %11 = load i32, ptr %i, align 4
  %conv14 = sext i32 %11 to i64
  %call15 = call noundef nonnull align 1 dereferenceable(1) ptr @_ZNSt7__cxx1112basic_stringIcSt11char_traitsIcESaIcEEixEm(ptr noundef nonnull align 8 dereferenceable(32) %10, i64 noundef %conv14)
  store ptr %call15, ptr %c, align 8
  %12 = load ptr, ptr %c, align 8
  %13 = load i8, ptr %12, align 1
  %conv16 = sext i8 %13 to i32
  %cmp17 = icmp sle i32 97, %conv16
  br i1 %cmp17, label %land.lhs.true, label %if.end23

land.lhs.true:                                    ; preds = %for.body
  %14 = load ptr, ptr %c, align 8
  %15 = load i8, ptr %14, align 1
  %conv18 = sext i8 %15 to i32
  %cmp19 = icmp sle i32 %conv18, 122
  br i1 %cmp19, label %if.then20, label %if.end23

if.then20:                                        ; preds = %land.lhs.true
  %16 = load ptr, ptr %c, align 8
  %17 = load i8, ptr %16, align 1
  %conv21 = sext i8 %17 to i32
  %add = add nsw i32 %conv21, -32
  %conv22 = trunc i32 %add to i8
  store i8 %conv22, ptr %16, align 1
  br label %if.end23

if.end23:                                         ; preds = %if.then20, %land.lhs.true, %for.body
  br label %for.inc

for.inc:                                          ; preds = %if.end23
  %18 = load i32, ptr %i, align 4
  %inc = add nsw i32 %18, 1
  store i32 %inc, ptr %i, align 4
  br label %for.cond, !llvm.loop !12

for.end:                                          ; preds = %for.cond
  br label %if.end24

if.end24:                                         ; preds = %for.end, %if.end4
  call void @_ZNSt7__cxx1112basic_stringIcSt11char_traitsIcESaIcEEC1Ev(ptr noundef nonnull align 8 dereferenceable(32) %dmin) #16
  call void @_ZNSt7__cxx1112basic_stringIcSt11char_traitsIcESaIcEEC1Ev(ptr noundef nonnull align 8 dereferenceable(32) %dmax) #16
  %19 = load i32, ptr %n, align 4
  %20 = load i32, ptr %maxlen.addr, align 4
  %sub = sub nsw i32 %20, %19
  store i32 %sub, ptr %maxlen.addr, align 4
  %21 = load i32, ptr %maxlen.addr, align 4
  %cmp25 = icmp sgt i32 %21, 0
  br i1 %cmp25, label %land.lhs.true26, label %if.else

land.lhs.true26:                                  ; preds = %if.end24
  %prog_27 = getelementptr inbounds %"class.re2::RE2", ptr %this1, i32 0, i32 9
  %22 = load ptr, ptr %prog_27, align 8
  %23 = load i32, ptr %maxlen.addr, align 4
  %call28 = invoke noundef zeroext i1 @_ZN3re24Prog18PossibleMatchRangeEPNSt7__cxx1112basic_stringIcSt11char_traitsIcESaIcEEES7_i(ptr noundef nonnull align 8 dereferenceable(432) %22, ptr noundef %dmin, ptr noundef %dmax, i32 noundef %23)
          to label %invoke.cont unwind label %lpad

invoke.cont:                                      ; preds = %land.lhs.true26
  br i1 %call28, label %if.then29, label %if.else

if.then29:                                        ; preds = %invoke.cont
  %24 = load ptr, ptr %min.addr, align 8
  %call31 = invoke noundef nonnull align 8 dereferenceable(32) ptr @_ZNSt7__cxx1112basic_stringIcSt11char_traitsIcESaIcEE6appendERKS4_(ptr noundef nonnull align 8 dereferenceable(32) %24, ptr noundef nonnull align 8 dereferenceable(32) %dmin)
          to label %invoke.cont30 unwind label %lpad

invoke.cont30:                                    ; preds = %if.then29
  %25 = load ptr, ptr %max.addr, align 8
  %call33 = invoke noundef nonnull align 8 dereferenceable(32) ptr @_ZNSt7__cxx1112basic_stringIcSt11char_traitsIcESaIcEE6appendERKS4_(ptr noundef nonnull align 8 dereferenceable(32) %25, ptr noundef nonnull align 8 dereferenceable(32) %dmax)
          to label %invoke.cont32 unwind label %lpad

invoke.cont32:                                    ; preds = %invoke.cont30
  br label %if.end43

lpad:                                             ; preds = %invoke.cont38, %if.else37, %if.then35, %invoke.cont30, %if.then29, %land.lhs.true26
  %26 = landingpad { ptr, i32 }
          cleanup
  %27 = extractvalue { ptr, i32 } %26, 0
  store ptr %27, ptr %exn.slot, align 8
  %28 = extractvalue { ptr, i32 } %26, 1
  store i32 %28, ptr %ehselector.slot, align 4
  call void @_ZNSt7__cxx1112basic_stringIcSt11char_traitsIcESaIcEED1Ev(ptr noundef nonnull align 8 dereferenceable(32) %dmax) #16
  call void @_ZNSt7__cxx1112basic_stringIcSt11char_traitsIcESaIcEED1Ev(ptr noundef nonnull align 8 dereferenceable(32) %dmin) #16
  br label %eh.resume

if.else:                                          ; preds = %invoke.cont, %if.end24
  %29 = load ptr, ptr %max.addr, align 8
  %call34 = call noundef zeroext i1 @_ZNKSt7__cxx1112basic_stringIcSt11char_traitsIcESaIcEE5emptyEv(ptr noundef nonnull align 8 dereferenceable(32) %29) #16
  br i1 %call34, label %if.else37, label %if.then35

if.then35:                                        ; preds = %if.else
  %30 = load ptr, ptr %max.addr, align 8
  invoke void @_ZN3re215PrefixSuccessorEPNSt7__cxx1112basic_stringIcSt11char_traitsIcESaIcEEE(ptr noundef %30)
          to label %invoke.cont36 unwind label %lpad

invoke.cont36:                                    ; preds = %if.then35
  br label %if.end42

if.else37:                                        ; preds = %if.else
  %31 = load ptr, ptr %min.addr, align 8
  %call39 = invoke noundef nonnull align 8 dereferenceable(32) ptr @_ZNSt7__cxx1112basic_stringIcSt11char_traitsIcESaIcEEaSEPKc(ptr noundef nonnull align 8 dereferenceable(32) %31, ptr noundef @.str.8)
          to label %invoke.cont38 unwind label %lpad

invoke.cont38:                                    ; preds = %if.else37
  %32 = load ptr, ptr %max.addr, align 8
  %call41 = invoke noundef nonnull align 8 dereferenceable(32) ptr @_ZNSt7__cxx1112basic_stringIcSt11char_traitsIcESaIcEEaSEPKc(ptr noundef nonnull align 8 dereferenceable(32) %32, ptr noundef @.str.8)
          to label %invoke.cont40 unwind label %lpad

invoke.cont40:                                    ; preds = %invoke.cont38
  store i1 false, ptr %retval, align 1
  store i32 1, ptr %cleanup.dest.slot, align 4
  br label %cleanup

if.end42:                                         ; preds = %invoke.cont36
  br label %if.end43

if.end43:                                         ; preds = %if.end42, %invoke.cont32
  store i1 true, ptr %retval, align 1
  store i32 1, ptr %cleanup.dest.slot, align 4
  br label %cleanup

cleanup:                                          ; preds = %if.end43, %invoke.cont40
  call void @_ZNSt7__cxx1112basic_stringIcSt11char_traitsIcESaIcEED1Ev(ptr noundef nonnull align 8 dereferenceable(32) %dmax) #16
  call void @_ZNSt7__cxx1112basic_stringIcSt11char_traitsIcESaIcEED1Ev(ptr noundef nonnull align 8 dereferenceable(32) %dmin) #16
  br label %return

return:                                           ; preds = %cleanup, %if.then
  %33 = load i1, ptr %retval, align 1
  ret i1 %33

eh.resume:                                        ; preds = %lpad
  %exn = load ptr, ptr %exn.slot, align 8
  %sel = load i32, ptr %ehselector.slot, align 4
  %lpad.val = insertvalue { ptr, i32 } poison, ptr %exn, 0
  %lpad.val45 = insertvalue { ptr, i32 } %lpad.val, i32 %sel, 1
  resume { ptr, i32 } %lpad.val45
}