; Function Attrs: mustprogress uwtable
define noundef zeroext i1 @_ZNK3re23RE218PossibleMatchRangeEPNSt7__cxx1112basic_stringIcSt11char_traitsIcESaIcEEES7_i(ptr noundef nonnull align 8 dereferenceable(148) %this, ptr noundef %min, ptr noundef %max, i32 noundef %maxlen) local_unnamed_addr #2 align 2 personality ptr @__gxx_personality_v0 {
entry:
  %ref.tmp = alloca %"class.std::__cxx11::basic_string", align 8
  %ref.tmp8 = alloca %"class.std::__cxx11::basic_string", align 8
  %dmin = alloca %"class.std::__cxx11::basic_string", align 8
  %dmax = alloca %"class.std::__cxx11::basic_string", align 8
  %prog_ = getelementptr inbounds nuw i8, ptr %this, i64 104
  %0 = load ptr, ptr %prog_, align 8
  %cmp = icmp eq ptr %0, null
  br i1 %cmp, label %return, label %if.end

if.end:                                           ; preds = %entry
  %prefix_ = getelementptr inbounds nuw i8, ptr %this, i64 72
  %call = tail call noundef i64 @_ZNKSt7__cxx1112basic_stringIcSt11char_traitsIcESaIcEE4sizeEv(ptr noundef nonnull align 8 dereferenceable(32) %prefix_) #30
  %conv = trunc i64 %call to i32
  %spec.select = tail call i32 @llvm.smin.i32(i32 %maxlen, i32 %conv)
  %conv6 = sext i32 %spec.select to i64
  call void @_ZNKSt7__cxx1112basic_stringIcSt11char_traitsIcESaIcEE6substrEmm(ptr nonnull sret(%"class.std::__cxx11::basic_string") align 8 %ref.tmp, ptr noundef nonnull align 8 dereferenceable(32) %prefix_, i64 noundef 0, i64 noundef %conv6)
  %call7 = call noundef nonnull align 8 dereferenceable(32) ptr @_ZNSt7__cxx1112basic_stringIcSt11char_traitsIcESaIcEEaSEOS4_(ptr noundef nonnull align 8 dereferenceable(32) %min, ptr noundef nonnull align 8 dereferenceable(32) %ref.tmp) #30
  call void @_ZNSt7__cxx1112basic_stringIcSt11char_traitsIcESaIcEED1Ev(ptr noundef nonnull align 8 dereferenceable(32) %ref.tmp) #30
  call void @_ZNKSt7__cxx1112basic_stringIcSt11char_traitsIcESaIcEE6substrEmm(ptr nonnull sret(%"class.std::__cxx11::basic_string") align 8 %ref.tmp8, ptr noundef nonnull align 8 dereferenceable(32) %prefix_, i64 noundef 0, i64 noundef %conv6)
  %call11 = call noundef nonnull align 8 dereferenceable(32) ptr @_ZNSt7__cxx1112basic_stringIcSt11char_traitsIcESaIcEEaSEOS4_(ptr noundef nonnull align 8 dereferenceable(32) %max, ptr noundef nonnull align 8 dereferenceable(32) %ref.tmp8) #30
  call void @_ZNSt7__cxx1112basic_stringIcSt11char_traitsIcESaIcEED1Ev(ptr noundef nonnull align 8 dereferenceable(32) %ref.tmp8) #30
  %prefix_foldcase_ = getelementptr inbounds nuw i8, ptr %this, i64 68
  %bf.load = load i32, ptr %prefix_foldcase_, align 4
  %bf.cast.not = icmp slt i32 %bf.load, 0
  %cmp1320 = icmp sgt i32 %spec.select, 0
  %or.cond22 = and i1 %bf.cast.not, %cmp1320
  br i1 %or.cond22, label %for.body.preheader, label %if.end24

for.body.preheader:                               ; preds = %if.end
  %wide.trip.count = zext nneg i32 %spec.select to i64
  br label %for.body

for.body:                                         ; preds = %for.body.preheader, %for.inc
  %indvars.iv = phi i64 [ 0, %for.body.preheader ], [ %indvars.iv.next, %for.inc ]
  %call15 = call noundef nonnull align 1 dereferenceable(1) ptr @_ZNSt7__cxx1112basic_stringIcSt11char_traitsIcESaIcEEixEm(ptr noundef nonnull align 8 dereferenceable(32) %min, i64 noundef %indvars.iv)
  %1 = load i8, ptr %call15, align 1
  %2 = add i8 %1, -97
  %or.cond = icmp ult i8 %2, 26
  br i1 %or.cond, label %if.then20, label %for.inc

if.then20:                                        ; preds = %for.body
  %narrow = add nsw i8 %1, -32
  store i8 %narrow, ptr %call15, align 1
  br label %for.inc

for.inc:                                          ; preds = %for.body, %if.then20
  %indvars.iv.next = add nuw nsw i64 %indvars.iv, 1
  %exitcond.not = icmp eq i64 %indvars.iv.next, %wide.trip.count
  br i1 %exitcond.not, label %if.end24, label %for.body, !llvm.loop !25

if.end24:                                         ; preds = %for.inc, %if.end
  call void @_ZNSt7__cxx1112basic_stringIcSt11char_traitsIcESaIcEEC1Ev(ptr noundef nonnull align 8 dereferenceable(32) %dmin) #30
  call void @_ZNSt7__cxx1112basic_stringIcSt11char_traitsIcESaIcEEC1Ev(ptr noundef nonnull align 8 dereferenceable(32) %dmax) #30
  %sub = sub nsw i32 %maxlen, %spec.select
  %cmp25 = icmp sgt i32 %sub, 0
  br i1 %cmp25, label %land.lhs.true26, label %if.else

land.lhs.true26:                                  ; preds = %if.end24
  %3 = load ptr, ptr %prog_, align 8
  %call28 = invoke noundef zeroext i1 @_ZN3re24Prog18PossibleMatchRangeEPNSt7__cxx1112basic_stringIcSt11char_traitsIcESaIcEEES7_i(ptr noundef nonnull align 8 dereferenceable(432) %3, ptr noundef nonnull %dmin, ptr noundef nonnull %dmax, i32 noundef %sub)
          to label %invoke.cont unwind label %lpad

invoke.cont:                                      ; preds = %land.lhs.true26
  br i1 %call28, label %if.then29, label %if.else

if.then29:                                        ; preds = %invoke.cont
  %call31 = invoke noundef nonnull align 8 dereferenceable(32) ptr @_ZNSt7__cxx1112basic_stringIcSt11char_traitsIcESaIcEE6appendERKS4_(ptr noundef nonnull align 8 dereferenceable(32) %min, ptr noundef nonnull align 8 dereferenceable(32) %dmin)
          to label %invoke.cont30 unwind label %lpad

invoke.cont30:                                    ; preds = %if.then29
  %call33 = invoke noundef nonnull align 8 dereferenceable(32) ptr @_ZNSt7__cxx1112basic_stringIcSt11char_traitsIcESaIcEE6appendERKS4_(ptr noundef nonnull align 8 dereferenceable(32) %max, ptr noundef nonnull align 8 dereferenceable(32) %dmax)
          to label %cleanup unwind label %lpad

lpad:                                             ; preds = %invoke.cont38, %if.else37, %if.then35, %invoke.cont30, %if.then29, %land.lhs.true26
  %4 = landingpad { ptr, i32 }
          cleanup
  call void @_ZNSt7__cxx1112basic_stringIcSt11char_traitsIcESaIcEED1Ev(ptr noundef nonnull align 8 dereferenceable(32) %dmax) #30
  call void @_ZNSt7__cxx1112basic_stringIcSt11char_traitsIcESaIcEED1Ev(ptr noundef nonnull align 8 dereferenceable(32) %dmin) #30
  resume { ptr, i32 } %4

if.else:                                          ; preds = %invoke.cont, %if.end24
  %call34 = call noundef zeroext i1 @_ZNKSt7__cxx1112basic_stringIcSt11char_traitsIcESaIcEE5emptyEv(ptr noundef nonnull align 8 dereferenceable(32) %max) #30
  br i1 %call34, label %if.else37, label %if.then35

if.then35:                                        ; preds = %if.else
  invoke void @_ZN3re215PrefixSuccessorEPNSt7__cxx1112basic_stringIcSt11char_traitsIcESaIcEEE(ptr noundef nonnull %max)
          to label %cleanup unwind label %lpad

if.else37:                                        ; preds = %if.else
  %call39 = invoke noundef nonnull align 8 dereferenceable(32) ptr @_ZNSt7__cxx1112basic_stringIcSt11char_traitsIcESaIcEEaSEPKc(ptr noundef nonnull align 8 dereferenceable(32) %min, ptr noundef nonnull @.str.8)
          to label %invoke.cont38 unwind label %lpad

invoke.cont38:                                    ; preds = %if.else37
  %call41 = invoke noundef nonnull align 8 dereferenceable(32) ptr @_ZNSt7__cxx1112basic_stringIcSt11char_traitsIcESaIcEEaSEPKc(ptr noundef nonnull align 8 dereferenceable(32) %max, ptr noundef nonnull @.str.8)
          to label %cleanup unwind label %lpad

cleanup:                                          ; preds = %invoke.cont30, %if.then35, %invoke.cont38
  %retval.1 = phi i1 [ false, %invoke.cont38 ], [ true, %if.then35 ], [ true, %invoke.cont30 ]
  call void @_ZNSt7__cxx1112basic_stringIcSt11char_traitsIcESaIcEED1Ev(ptr noundef nonnull align 8 dereferenceable(32) %dmax) #30
  call void @_ZNSt7__cxx1112basic_stringIcSt11char_traitsIcESaIcEED1Ev(ptr noundef nonnull align 8 dereferenceable(32) %dmin) #30
  br label %return

return:                                           ; preds = %entry, %cleanup
  %retval.0 = phi i1 [ %retval.1, %cleanup ], [ false, %entry ]
  ret i1 %retval.0
}